; Function Attrs: nounwind uwtable
define dso_local range(i32 0, 3) i32 @curl_global_init_mem(i64 noundef %0, ptr noundef %1, ptr noundef %2, ptr noundef %3, ptr noundef %4, ptr noundef %5) local_unnamed_addr #5 {
  %7 = icmp ne ptr %1, null
  %8 = icmp ne ptr %2, null
  %or.cond = and i1 %7, %8
  %9 = icmp ne ptr %3, null
  %or.cond3 = and i1 %or.cond, %9
  %10 = icmp ne ptr %4, null
  %or.cond5 = and i1 %or.cond3, %10
  %11 = icmp ne ptr %5, null
  %or.cond7 = and i1 %or.cond5, %11
  br i1 %or.cond7, label %12, label %global_init.exit

12:                                               ; preds = %6
  %13 = load i32, ptr @initialized, align 4, !tbaa !4
  %.not = icmp eq i32 %13, 0
  br i1 %.not, label %16, label %14

14:                                               ; preds = %12
  %15 = add i32 %13, 1
  br label %global_init.exit.sink.split

16:                                               ; preds = %12
  store ptr %1, ptr @Curl_cmalloc, align 8, !tbaa !8
  store ptr %2, ptr @Curl_cfree, align 8, !tbaa !8
  store ptr %4, ptr @Curl_cstrdup, align 8, !tbaa !8
  store ptr %3, ptr @Curl_crealloc, align 8, !tbaa !8
  store ptr %5, ptr @Curl_ccalloc, align 8, !tbaa !8
  store i32 1, ptr @initialized, align 4, !tbaa !4
  %17 = tail call i32 @Curl_trc_init() #12
  %.not3.i = icmp eq i32 %17, 0
  br i1 %.not3.i, label %18, label %20

18:                                               ; preds = %16
  %19 = tail call i32 @Curl_ssl_init() #12
  %.not4.i = icmp eq i32 %19, 0
  br i1 %.not4.i, label %20, label %global_init.exit

20:                                               ; preds = %18, %16
  %21 = load i32, ptr @initialized, align 4, !tbaa !4
  %22 = add i32 %21, -1
  br label %global_init.exit.sink.split

global_init.exit.sink.split:                      ; preds = %14, %20
  %.sink = phi i32 [ %22, %20 ], [ %15, %14 ]
  %.0.ph = phi i32 [ 2, %20 ], [ 0, %14 ]
  store i32 %.sink, ptr @initialized, align 4, !tbaa !4
  br label %global_init.exit

global_init.exit:                                 ; preds = %global_init.exit.sink.split, %18, %6
  %.0 = phi i32 [ 2, %6 ], [ 0, %18 ], [ %.0.ph, %global_init.exit.sink.split ]
  ret i32 %.0
}